; ModuleID = '61/750.c'
source_filename = "61/750.c"
target datalayout = "e-m:e-p270:32:32-p271:32:32-p272:64:64-i64:64-f80:128-n8:16:32:64-S128"
target triple = "x86_64-pc-linux-gnu"

@.str = private unnamed_addr constant [3 x i8] c"%d\00", align 1
@.str.1 = private unnamed_addr constant [4 x i8] c"%d\0A\00", align 1

; Function Attrs: noinline nounwind uwtable
define dso_local i32 @main() #0 {
  %1 = alloca i32, align 4
  %2 = alloca i32, align 4
  %3 = alloca i32, align 4
  %4 = alloca i32, align 4
  %5 = alloca i32, align 4
  %6 = alloca i32, align 4
  %7 = alloca i32, align 4
  %8 = alloca i32, align 4
  %9 = alloca i32, align 4
  %10 = alloca i32, align 4
  %11 = alloca [100 x i32], align 16
  %12 = alloca i32, align 4
  %13 = alloca i32, align 4
  store i32 0, i32* %1, align 4
  store i32 0, i32* %2, align 4
  store i32 0, i32* %3, align 4
  store i32 1, i32* %4, align 4
  store i32 0, i32* %10, align 4
  %14 = call i32 (i8*, ...) @__isoc99_scanf(i8* getelementptr inbounds ([3 x i8], [3 x i8]* @.str, i64 0, i64 0), i32* %5)
  store i32 0, i32* %12, align 4
  br label %15

15:                                               ; preds = %44, %0
  %16 = load i32, i32* %12, align 4
  %17 = load i32, i32* %5, align 4
  %18 = icmp slt i32 %16, %17
  br i1 %18, label %19, label %47

19:                                               ; preds = %15
  %20 = load i32, i32* %12, align 4
  %21 = sext i32 %20 to i64
  %22 = getelementptr inbounds [100 x i32], [100 x i32]* %11, i64 0, i64 %21
  %23 = call i32 (i8*, ...) @__isoc99_scanf(i8* getelementptr inbounds ([3 x i8], [3 x i8]* @.str, i64 0, i64 0), i32* %22)
  store i32 1, i32* %13, align 4
  br label %24

24:                                               ; preds = %38, %19
  %25 = load i32, i32* %13, align 4
  %26 = load i32, i32* %12, align 4
  %27 = sext i32 %26 to i64
  %28 = getelementptr inbounds [100 x i32], [100 x i32]* %11, i64 0, i64 %27
  %29 = load i32, i32* %28, align 4
  %30 = icmp sle i32 %25, %29
  br i1 %30, label %31, label %41

31:                                               ; preds = %24
  %32 = load i32, i32* %2, align 4
  %33 = load i32, i32* %4, align 4
  %34 = add nsw i32 %32, %33
  store i32 %34, i32* %3, align 4
  %35 = load i32, i32* %2, align 4
  store i32 %35, i32* %4, align 4
  %36 = load i32, i32* %3, align 4
  store i32 %36, i32* %2, align 4
  %37 = load i32, i32* %3, align 4
  store i32 %37, i32* %10, align 4
  br label %38

38:                                               ; preds = %31
  %39 = load i32, i32* %13, align 4
  %40 = add nsw i32 %39, 1
  store i32 %40, i32* %13, align 4
  br label %24

41:                                               ; preds = %24
  %42 = load i32, i32* %10, align 4
  %43 = call i32 (i8*, ...) @printf(i8* getelementptr inbounds ([4 x i8], [4 x i8]* @.str.1, i64 0, i64 0), i32 %42)
  store i32 0, i32* %2, align 4
  store i32 0, i32* %3, align 4
  store i32 1, i32* %4, align 4
  br label %44

44:                                               ; preds = %41
  %45 = load i32, i32* %12, align 4
  %46 = add nsw i32 %45, 1
  store i32 %46, i32* %12, align 4
  br label %15

47:                                               ; preds = %15
  ret i32 0
}

declare dso_local i32 @__isoc99_scanf(i8*, ...) #1

declare dso_local i32 @printf(i8*, ...) #1


!llvm.module.flags = !{!0}
!llvm.ident = !{!1}

!0 = !{i32 1, !"wchar_size", i32 4}
!1 = !{!"clang version 10.0.0-4ubuntu1 "}
